target datalayout = "e-m:e-p270:32:32-p271:32:32-p272:64:64-i64:64-i128:128-f80:128-n8:16:32:64-S128"
target triple = "x86_64-pc-linux-gnu"

@.str.3 = private unnamed_addr constant [4 x i8] c"foo\00", align 1
@.str.4 = private unnamed_addr constant [4 x i8] c"bar\00", align 1
@.str.5 = private unnamed_addr constant [4 x i8] c"baz\00", align 1
@.str.6 = private unnamed_addr constant [2 x i8] c"f\00", align 1

; Function Attrs: inlinehint nounwind uwtable
define internal void @Py_DECREF(ptr noundef %0) #3 {
  %2 = alloca ptr, align 8
  store ptr %0, ptr %2, align 8, !tbaa !3
  %3 = load ptr, ptr %2, align 8, !tbaa !3
  call void @_Py_DecRef(ptr noundef %3)
  ret void
}

; Function Attrs: inlinehint nounwind uwtable
define internal void @Py_XDECREF(ptr noundef %0) #3 {
  %2 = alloca ptr, align 8
  store ptr %0, ptr %2, align 8, !tbaa !3
  %3 = load ptr, ptr %2, align 8, !tbaa !3
  %4 = icmp ne ptr %3, null
  br i1 %4, label %5, label %7

5:                                                ; preds = %1
  %6 = load ptr, ptr %2, align 8, !tbaa !3
  call void @Py_DECREF(ptr noundef %6)
  br label %7

7:                                                ; preds = %5, %1
  ret void
}

; Function Attrs: nounwind uwtable
define internal ptr @_testlimitedcapi_call_vectorcall_method(ptr noundef %0, ptr noundef %1) #0 {
  %3 = alloca ptr, align 8
  %4 = alloca ptr, align 8
  %5 = alloca [3 x ptr], align 16
  %6 = alloca ptr, align 8
  %7 = alloca ptr, align 8
  %8 = alloca ptr, align 8
  %9 = alloca ptr, align 8
  store ptr %0, ptr %3, align 8, !tbaa !3
  store ptr %1, ptr %4, align 8, !tbaa !3
  call void @llvm.lifetime.start.p0(i64 24, ptr %5) #5
  call void @llvm.memset.p0.i64(ptr align 16 %5, i8 0, i64 24, i1 false)
  call void @llvm.lifetime.start.p0(i64 8, ptr %6) #5
  store ptr null, ptr %6, align 8, !tbaa !3
  call void @llvm.lifetime.start.p0(i64 8, ptr %7) #5
  store ptr null, ptr %7, align 8, !tbaa !3
  call void @llvm.lifetime.start.p0(i64 8, ptr %8) #5
  store ptr null, ptr %8, align 8, !tbaa !3
  call void @llvm.lifetime.start.p0(i64 8, ptr %9) #5
  store ptr null, ptr %9, align 8, !tbaa !3
  %10 = call ptr @PyUnicode_FromString(ptr noundef @.str.6)
  store ptr %10, ptr %6, align 8, !tbaa !3
  %11 = load ptr, ptr %6, align 8, !tbaa !3
  %12 = icmp ne ptr %11, null
  br i1 %12, label %14, label %13

13:                                               ; preds = %2
  br label %51

14:                                               ; preds = %2
  %15 = load ptr, ptr %4, align 8, !tbaa !3
  %16 = getelementptr [3 x ptr], ptr %5, i64 0, i64 0
  store ptr %15, ptr %16, align 16, !tbaa !3
  %17 = call ptr @PyUnicode_FromString(ptr noundef @.str.3)
  %18 = getelementptr [3 x ptr], ptr %5, i64 0, i64 1
  store ptr %17, ptr %18, align 8, !tbaa !3
  %19 = getelementptr [3 x ptr], ptr %5, i64 0, i64 1
  %20 = load ptr, ptr %19, align 8, !tbaa !3
  %21 = icmp ne ptr %20, null
  br i1 %21, label %23, label %22

22:                                               ; preds = %14
  br label %51

23:                                               ; preds = %14
  %24 = call ptr @PyUnicode_FromString(ptr noundef @.str.4)
  %25 = getelementptr [3 x ptr], ptr %5, i64 0, i64 2
  store ptr %24, ptr %25, align 16, !tbaa !3
  %26 = getelementptr [3 x ptr], ptr %5, i64 0, i64 2
  %27 = load ptr, ptr %26, align 16, !tbaa !3
  %28 = icmp ne ptr %27, null
  br i1 %28, label %30, label %29

29:                                               ; preds = %23
  br label %51

30:                                               ; preds = %23
  %31 = call ptr @PyUnicode_InternFromString(ptr noundef @.str.5)
  store ptr %31, ptr %7, align 8, !tbaa !3
  %32 = load ptr, ptr %7, align 8, !tbaa !3
  %33 = icmp ne ptr %32, null
  br i1 %33, label %35, label %34

34:                                               ; preds = %30
  br label %51

35:                                               ; preds = %30
  %36 = call ptr @PyTuple_New(i64 noundef 1)
  store ptr %36, ptr %8, align 8, !tbaa !3
  %37 = load ptr, ptr %8, align 8, !tbaa !3
  %38 = icmp ne ptr %37, null
  br i1 %38, label %40, label %39

39:                                               ; preds = %35
  br label %51

40:                                               ; preds = %35
  %41 = load ptr, ptr %8, align 8, !tbaa !3
  %42 = load ptr, ptr %7, align 8, !tbaa !3
  %43 = call i32 @PyTuple_SetItem(ptr noundef %41, i64 noundef 0, ptr noundef %42)
  %44 = icmp ne i32 %43, 0
  br i1 %44, label %45, label %46

45:                                               ; preds = %40
  br label %51

46:                                               ; preds = %40
  %47 = load ptr, ptr %6, align 8, !tbaa !3
  %48 = getelementptr inbounds [3 x ptr], ptr %5, i64 0, i64 0
  %49 = load ptr, ptr %8, align 8, !tbaa !3
  %50 = call ptr @PyObject_VectorcallMethod(ptr noundef %47, ptr noundef %48, i64 noundef -9223372036854775806, ptr noundef %49)
  store ptr %50, ptr %9, align 8, !tbaa !3
  br label %51

51:                                               ; preds = %46, %45, %39, %34, %29, %22, %13
  %52 = load ptr, ptr %6, align 8, !tbaa !3
  call void @Py_XDECREF(ptr noundef %52)
  %53 = getelementptr [3 x ptr], ptr %5, i64 0, i64 1
  %54 = load ptr, ptr %53, align 8, !tbaa !3
  call void @Py_XDECREF(ptr noundef %54)
  %55 = getelementptr [3 x ptr], ptr %5, i64 0, i64 2
  %56 = load ptr, ptr %55, align 16, !tbaa !3
  call void @Py_XDECREF(ptr noundef %56)
  %57 = load ptr, ptr %8, align 8, !tbaa !3
  call void @Py_XDECREF(ptr noundef %57)
  %58 = load ptr, ptr %9, align 8, !tbaa !3
  call void @llvm.lifetime.end.p0(i64 8, ptr %9) #5
  call void @llvm.lifetime.end.p0(i64 8, ptr %8) #5
  call void @llvm.lifetime.end.p0(i64 8, ptr %7) #5
  call void @llvm.lifetime.end.p0(i64 8, ptr %6) #5
  call void @llvm.lifetime.end.p0(i64 24, ptr %5) #5
  ret ptr %58
}