; Function Attrs: nounwind uwtable
define internal ptr @_testlimitedcapi_call_vectorcall_method(ptr readnone captures(none) %0, ptr noundef %1) #0 {
  %3 = alloca [3 x ptr], align 16
  call void @llvm.lifetime.start.p0(i64 24, ptr nonnull %3) #4
  call void @llvm.memset.p0.i64(ptr noundef nonnull align 16 dereferenceable(24) %3, i8 0, i64 24, i1 false)
  %4 = tail call ptr @PyUnicode_FromString(ptr noundef nonnull @.str.6) #4
  %.not = icmp eq ptr %4, null
  br i1 %.not, label %Py_XDECREF.exit21, label %5

5:                                                ; preds = %2
  store ptr %1, ptr %3, align 16, !tbaa !3
  %6 = tail call ptr @PyUnicode_FromString(ptr noundef nonnull @.str.3) #4
  %7 = getelementptr inbounds nuw i8, ptr %3, i64 8
  store ptr %6, ptr %7, align 8, !tbaa !3
  %.not15 = icmp eq ptr %6, null
  br i1 %.not15, label %Py_XDECREF.exit, label %8

8:                                                ; preds = %5
  %9 = tail call ptr @PyUnicode_FromString(ptr noundef nonnull @.str.4) #4
  %10 = getelementptr inbounds nuw i8, ptr %3, i64 16
  store ptr %9, ptr %10, align 16, !tbaa !3
  %.not16 = icmp eq ptr %9, null
  br i1 %.not16, label %Py_XDECREF.exit, label %11

11:                                               ; preds = %8
  %12 = tail call ptr @PyUnicode_InternFromString(ptr noundef nonnull @.str.5) #4
  %.not17 = icmp eq ptr %12, null
  br i1 %.not17, label %Py_XDECREF.exit, label %13

13:                                               ; preds = %11
  %14 = tail call ptr @PyTuple_New(i64 noundef 1) #4
  %.not18 = icmp eq ptr %14, null
  br i1 %.not18, label %Py_XDECREF.exit, label %15

15:                                               ; preds = %13
  %16 = tail call i32 @PyTuple_SetItem(ptr noundef nonnull %14, i64 noundef 0, ptr noundef nonnull %12) #4
  %.not19 = icmp eq i32 %16, 0
  br i1 %.not19, label %17, label %Py_XDECREF.exit

17:                                               ; preds = %15
  %18 = call ptr @PyObject_VectorcallMethod(ptr noundef nonnull %4, ptr noundef nonnull %3, i64 noundef -9223372036854775806, ptr noundef nonnull %14) #4
  br label %Py_XDECREF.exit

Py_XDECREF.exit:                                  ; preds = %17, %5, %8, %11, %13, %15
  %.011.ph = phi ptr [ null, %5 ], [ null, %8 ], [ null, %11 ], [ null, %13 ], [ %14, %17 ], [ %14, %15 ]
  %.0.ph = phi ptr [ null, %5 ], [ null, %8 ], [ null, %11 ], [ null, %13 ], [ %18, %17 ], [ null, %15 ]
  call void @_Py_DecRef(ptr noundef nonnull %4) #4
  %.pre = load ptr, ptr %7, align 8, !tbaa !3
  %.not.i20 = icmp eq ptr %.pre, null
  br i1 %.not.i20, label %Py_XDECREF.exit21, label %19

19:                                               ; preds = %Py_XDECREF.exit
  call void @_Py_DecRef(ptr noundef nonnull %.pre) #4
  br label %Py_XDECREF.exit21

Py_XDECREF.exit21:                                ; preds = %2, %Py_XDECREF.exit, %19
  %.0112936 = phi ptr [ %.011.ph, %Py_XDECREF.exit ], [ %.011.ph, %19 ], [ null, %2 ]
  %.03135 = phi ptr [ %.0.ph, %Py_XDECREF.exit ], [ %.0.ph, %19 ], [ null, %2 ]
  %20 = getelementptr inbounds nuw i8, ptr %3, i64 16
  %21 = load ptr, ptr %20, align 16, !tbaa !3
  %.not.i22 = icmp eq ptr %21, null
  br i1 %.not.i22, label %Py_XDECREF.exit23, label %22

22:                                               ; preds = %Py_XDECREF.exit21
  call void @_Py_DecRef(ptr noundef nonnull %21) #4
  br label %Py_XDECREF.exit23

Py_XDECREF.exit23:                                ; preds = %Py_XDECREF.exit21, %22
  %.not.i24 = icmp eq ptr %.0112936, null
  br i1 %.not.i24, label %Py_XDECREF.exit25, label %23

23:                                               ; preds = %Py_XDECREF.exit23
  call void @_Py_DecRef(ptr noundef nonnull %.0112936) #4
  br label %Py_XDECREF.exit25

Py_XDECREF.exit25:                                ; preds = %Py_XDECREF.exit23, %23
  call void @llvm.lifetime.end.p0(i64 24, ptr nonnull %3) #4
  ret ptr %.03135
}